libthorvg.so.0:_ZN3tvg11Initializer4initENS_12CanvasEngineEj
libthorvg.so.0:_ZN3tvg11Initializer4termENS_12CanvasEngineE
libthorvg.so.0:_ZN3tvg11Initializer7versionEPjS1_S1_
libthorvg.so.0:_ZN3tvg14LinearGradient10identifierEv
libthorvg.so.0:_ZN3tvg14LinearGradient3genEv
libthorvg.so.0:_ZN3tvg14LinearGradient4Impl9duplicateEv
libthorvg.so.0:_ZN3tvg14LinearGradient6linearEffff
libthorvg.so.0:_ZN3tvg14LinearGradientC1Ev
libthorvg.so.0:_ZN3tvg14LinearGradientC2Ev
libthorvg.so.0:_ZN3tvg14LinearGradientD0Ev
libthorvg.so.0:_ZN3tvg14LinearGradientD1Ev
libthorvg.so.0:_ZN3tvg14LinearGradientD2Ev
libthorvg.so.0:_ZN3tvg14RadialGradient10identifierEv
libthorvg.so.0:_ZN3tvg14RadialGradient3genEv
libthorvg.so.0:_ZN3tvg14RadialGradient4Impl6radialEffffff
libthorvg.so.0:_ZN3tvg14RadialGradient4Impl9duplicateEv
libthorvg.so.0:_ZN3tvg14RadialGradient6radialEfff
libthorvg.so.0:_ZN3tvg14RadialGradientC1Ev
libthorvg.so.0:_ZN3tvg14RadialGradientC2Ev
libthorvg.so.0:_ZN3tvg14RadialGradientD0Ev
libthorvg.so.0:_ZN3tvg14RadialGradientD1Ev
libthorvg.so.0:_ZN3tvg14RadialGradientD2Ev
libthorvg.so.0:_ZN3tvg4Fill10colorStopsEPKNS0_9ColorStopEj
libthorvg.so.0:_ZN3tvg4Fill6spreadENS_10FillSpreadE
libthorvg.so.0:_ZN3tvg4Fill9transformERKNS_6MatrixE
libthorvg.so.0:_ZN3tvg4FillC1Ev
libthorvg.so.0:_ZN3tvg4FillC2Ev
libthorvg.so.0:_ZN3tvg4FillD0Ev
libthorvg.so.0:_ZN3tvg4FillD1Ev
libthorvg.so.0:_ZN3tvg4FillD2Ev
libthorvg.so.0:_ZN3tvg4Text3genEv
libthorvg.so.0:_ZN3tvg4Text4fillESt10unique_ptrINS_4FillESt14default_deleteIS2_EE
libthorvg.so.0:_ZN3tvg4Text4fillEhhh
libthorvg.so.0:_ZN3tvg4Text4fontEPKcfS2_
libthorvg.so.0:_ZN3tvg4Text4loadEPKcS2_jRKNSt7__cxx1112basic_stringIcSt11char_traitsIcESaIcEEEb
libthorvg.so.0:_ZN3tvg4Text4loadERKNSt7__cxx1112basic_stringIcSt11char_traitsIcESaIcEEE
libthorvg.so.0:_ZN3tvg4Text4textEPKc
libthorvg.so.0:_ZN3tvg4Text6unloadERKNSt7__cxx1112basic_stringIcSt11char_traitsIcESaIcEEE
libthorvg.so.0:_ZN3tvg4TextC1Ev
libthorvg.so.0:_ZN3tvg4TextC2Ev
libthorvg.so.0:_ZN3tvg4TextD0Ev
libthorvg.so.0:_ZN3tvg4TextD1Ev
libthorvg.so.0:_ZN3tvg4TextD2Ev
libthorvg.so.0:_ZN3tvg5Paint4Impl5resetEv
libthorvg.so.0:_ZN3tvg5Paint4Impl5scaleEf
libthorvg.so.0:_ZN3tvg5Paint4Impl6boundsEPfS2_S2_S2_bbb
libthorvg.so.0:_ZN3tvg5Paint4Impl6renderEPNS_12RenderMethodE
libthorvg.so.0:_ZN3tvg5Paint4Impl6rotateEf
libthorvg.so.0:_ZN3tvg5Paint4Impl6updateEPNS_12RenderMethodERKNS_6MatrixERNS_5ArrayIPvEEhNS_16RenderUpdateFlagEb
libthorvg.so.0:_ZN3tvg5Paint4Impl8iteratorEv
libthorvg.so.0:_ZN3tvg5Paint4Impl9duplicateEPS0_
libthorvg.so.0:_ZN3tvg5Paint4Impl9translateEff
libthorvg.so.0:_ZN3tvg5Paint4clipESt10unique_ptrIS0_St14default_deleteIS0_EE
libthorvg.so.0:_ZN3tvg5Paint5blendENS_11BlendMethodE
libthorvg.so.0:_ZN3tvg5Paint5scaleEf
libthorvg.so.0:_ZN3tvg5Paint6rotateEf
libthorvg.so.0:_ZN3tvg5Paint7opacityEh
libthorvg.so.0:_ZN3tvg5Paint9compositeESt10unique_ptrIS0_St14default_deleteIS0_EENS_15CompositeMethodE
libthorvg.so.0:_ZN3tvg5Paint9transformERKNS_6MatrixE
libthorvg.so.0:_ZN3tvg5Paint9transformEv
libthorvg.so.0:_ZN3tvg5Paint9translateEff
libthorvg.so.0:_ZN3tvg5PaintC1Ev
libthorvg.so.0:_ZN3tvg5PaintC2Ev
libthorvg.so.0:_ZN3tvg5PaintD0Ev
libthorvg.so.0:_ZN3tvg5PaintD1Ev
libthorvg.so.0:_ZN3tvg5PaintD2Ev
libthorvg.so.0:_ZN3tvg5Saver10backgroundESt10unique_ptrINS_5PaintESt14default_deleteIS2_EE
libthorvg.so.0:_ZN3tvg5Saver3genEv
libthorvg.so.0:_ZN3tvg5Saver4saveESt10unique_ptrINS_5PaintESt14default_deleteIS2_EERKNSt7__cxx1112basic_stringIcSt11char_traitsIcESaIcEEEb
libthorvg.so.0:_ZN3tvg5Saver4saveESt10unique_ptrINS_9AnimationESt14default_deleteIS2_EERKNSt7__cxx1112basic_stringIcSt11char_traitsIcESaIcEEEjj
libthorvg.so.0:_ZN3tvg5Saver4syncEv
libthorvg.so.0:_ZN3tvg5SaverC1Ev
libthorvg.so.0:_ZN3tvg5SaverC2Ev
libthorvg.so.0:_ZN3tvg5SaverD1Ev
libthorvg.so.0:_ZN3tvg5SaverD2Ev
libthorvg.so.0:_ZN3tvg5Scene10identifierEv
libthorvg.so.0:_ZN3tvg5Scene3genEv
libthorvg.so.0:_ZN3tvg5Scene4Impl12resetEffectsEv
libthorvg.so.0:_ZN3tvg5Scene4pushENS_11SceneEffectEz
libthorvg.so.0:_ZN3tvg5Scene4pushESt10unique_ptrINS_5PaintESt14default_deleteIS2_EE
libthorvg.so.0:_ZN3tvg5Scene5clearEb
libthorvg.so.0:_ZN3tvg5Scene6paintsB5cxx11Ev
libthorvg.so.0:_ZN3tvg5Scene7reserveEj
libthorvg.so.0:_ZN3tvg5SceneC1Ev
libthorvg.so.0:_ZN3tvg5SceneC2Ev
libthorvg.so.0:_ZN3tvg5SceneD0Ev
libthorvg.so.0:_ZN3tvg5SceneD1Ev
libthorvg.so.0:_ZN3tvg5SceneD2Ev
libthorvg.so.0:_ZN3tvg5Shape10appendPathEPKNS_11PathCommandEjPKNS_5PointEj
libthorvg.so.0:_ZN3tvg5Shape10appendRectEffffff
libthorvg.so.0:_ZN3tvg5Shape10identifierEv
libthorvg.so.0:_ZN3tvg5Shape10strokeTrimEffb
libthorvg.so.0:_ZN3tvg5Shape12appendCircleEffff
libthorvg.so.0:_ZN3tvg5Shape16strokeMiterlimitEf
libthorvg.so.0:_ZN3tvg5Shape3genEv
libthorvg.so.0:_ZN3tvg5Shape4fillENS_8FillRuleE
libthorvg.so.0:_ZN3tvg5Shape4fillESt10unique_ptrINS_4FillESt14default_deleteIS2_EE
libthorvg.so.0:_ZN3tvg5Shape4fillEhhhh
libthorvg.so.0:_ZN3tvg5Shape5closeEv
libthorvg.so.0:_ZN3tvg5Shape5orderEb
libthorvg.so.0:_ZN3tvg5Shape5resetEv
libthorvg.so.0:_ZN3tvg5Shape6lineToEff
libthorvg.so.0:_ZN3tvg5Shape6moveToEff
libthorvg.so.0:_ZN3tvg5Shape6strokeENS_10StrokeJoinE
libthorvg.so.0:_ZN3tvg5Shape6strokeENS_9StrokeCapE
libthorvg.so.0:_ZN3tvg5Shape6strokeEPKfj
libthorvg.so.0:_ZN3tvg5Shape6strokeESt10unique_ptrINS_4FillESt14default_deleteIS2_EE
libthorvg.so.0:_ZN3tvg5Shape6strokeEf
libthorvg.so.0:_ZN3tvg5Shape6strokeEhhhh
libthorvg.so.0:_ZN3tvg5Shape7cubicToEffffff
libthorvg.so.0:_ZN3tvg5Shape9appendArcEfffffb
libthorvg.so.0:_ZN3tvg5ShapeC1Ev
libthorvg.so.0:_ZN3tvg5ShapeC2Ev
libthorvg.so.0:_ZN3tvg5ShapeD0Ev
libthorvg.so.0:_ZN3tvg5ShapeD1Ev
libthorvg.so.0:_ZN3tvg5ShapeD2Ev
libthorvg.so.0:_ZN3tvg6Canvas4drawEv
libthorvg.so.0:_ZN3tvg6Canvas4pushESt10unique_ptrINS_5PaintESt14default_deleteIS2_EE
libthorvg.so.0:_ZN3tvg6Canvas4syncEv
libthorvg.so.0:_ZN3tvg6Canvas5clearEb
libthorvg.so.0:_ZN3tvg6Canvas6paintsB5cxx11Ev
libthorvg.so.0:_ZN3tvg6Canvas6updateEPNS_5PaintE
libthorvg.so.0:_ZN3tvg6Canvas7reserveEj
libthorvg.so.0:_ZN3tvg6Canvas8viewportEiiii
libthorvg.so.0:_ZN3tvg6CanvasC1EPNS_12RenderMethodE
libthorvg.so.0:_ZN3tvg6CanvasC2EPNS_12RenderMethodE
libthorvg.so.0:_ZN3tvg6CanvasD0Ev
libthorvg.so.0:_ZN3tvg6CanvasD1Ev
libthorvg.so.0:_ZN3tvg6CanvasD2Ev
libthorvg.so.0:_ZN3tvg7Picture10identifierEv
libthorvg.so.0:_ZN3tvg7Picture3genEv
libthorvg.so.0:_ZN3tvg7Picture4Impl16queryCompositionEh
libthorvg.so.0:_ZN3tvg7Picture4Impl4loadEP11ImageLoader
libthorvg.so.0:_ZN3tvg7Picture4Impl4loadEv
libthorvg.so.0:_ZN3tvg7Picture4Impl4sizeEff
libthorvg.so.0:_ZN3tvg7Picture4Impl6boundsEPNS_12RenderMethodE
libthorvg.so.0:_ZN3tvg7Picture4Impl6renderEPNS_12RenderMethodE
libthorvg.so.0:_ZN3tvg7Picture4loadEPKcjRKNSt7__cxx1112basic_stringIcSt11char_traitsIcESaIcEEEb
libthorvg.so.0:_ZN3tvg7Picture4loadEPKcjb
libthorvg.so.0:_ZN3tvg7Picture4loadEPjjjb
libthorvg.so.0:_ZN3tvg7Picture4loadERKNSt7__cxx1112basic_stringIcSt11char_traitsIcESaIcEEE
libthorvg.so.0:_ZN3tvg7Picture4sizeEff
libthorvg.so.0:_ZN3tvg7Picture5paintEj
libthorvg.so.0:_ZN3tvg7PictureC1Ev
libthorvg.so.0:_ZN3tvg7PictureC2Ev
libthorvg.so.0:_ZN3tvg7PictureD0Ev
libthorvg.so.0:_ZN3tvg7PictureD1Ev
libthorvg.so.0:_ZN3tvg7PictureD2Ev
libthorvg.so.0:_ZN3tvg8Accessor2idEPKc
libthorvg.so.0:_ZN3tvg8Accessor3genEv
libthorvg.so.0:_ZN3tvg8Accessor3setEPNS_5PaintESt8functionIFbPKS1_PvEES6_
libthorvg.so.0:_ZN3tvg8Accessor3setESt10unique_ptrINS_7PictureESt14default_deleteIS2_EESt8functionIFbPKNS_5PaintEEE
libthorvg.so.0:_ZN3tvg8AccessorC1Ev
libthorvg.so.0:_ZN3tvg8AccessorC2Ev
libthorvg.so.0:_ZN3tvg8AccessorD1Ev
libthorvg.so.0:_ZN3tvg8AccessorD2Ev
libthorvg.so.0:_ZN3tvg8GlCanvas3genEv
libthorvg.so.0:_ZN3tvg8GlCanvas6targetEijj
libthorvg.so.0:_ZN3tvg8GlCanvasC1Ev
libthorvg.so.0:_ZN3tvg8GlCanvasC2Ev
libthorvg.so.0:_ZN3tvg8GlCanvasD0Ev
libthorvg.so.0:_ZN3tvg8GlCanvasD1Ev
libthorvg.so.0:_ZN3tvg8GlCanvasD2Ev
libthorvg.so.0:_ZN3tvg8SwCanvas3genEv
libthorvg.so.0:_ZN3tvg8SwCanvas6targetEPjjjjNS0_10ColorspaceE
libthorvg.so.0:_ZN3tvg8SwCanvas7mempoolENS0_13MempoolPolicyE
libthorvg.so.0:_ZN3tvg8SwCanvasC1Ev
libthorvg.so.0:_ZN3tvg8SwCanvasC2Ev
libthorvg.so.0:_ZN3tvg8SwCanvasD0Ev
libthorvg.so.0:_ZN3tvg8SwCanvasD1Ev
libthorvg.so.0:_ZN3tvg8SwCanvasD2Ev
libthorvg.so.0:_ZN3tvg8WgCanvas3genEv
libthorvg.so.0:_ZN3tvg8WgCanvas6targetEPvS1_jjS1_
libthorvg.so.0:_ZN3tvg8WgCanvasC1Ev
libthorvg.so.0:_ZN3tvg8WgCanvasC2Ev
libthorvg.so.0:_ZN3tvg8WgCanvasD0Ev
libthorvg.so.0:_ZN3tvg8WgCanvasD1Ev
libthorvg.so.0:_ZN3tvg8WgCanvasD2Ev
libthorvg.so.0:_ZN3tvg9Animation3genEv
libthorvg.so.0:_ZN3tvg9Animation5frameEf
libthorvg.so.0:_ZN3tvg9Animation7segmentEPfS1_
libthorvg.so.0:_ZN3tvg9Animation7segmentEff
libthorvg.so.0:_ZN3tvg9AnimationC1Ev
libthorvg.so.0:_ZN3tvg9AnimationC2Ev
libthorvg.so.0:_ZN3tvg9AnimationD1Ev
libthorvg.so.0:_ZN3tvg9AnimationD2Ev
libthorvg.so.0:_ZNK3tvg14LinearGradient4typeEv
libthorvg.so.0:_ZNK3tvg14LinearGradient6linearEPfS1_S1_S1_
libthorvg.so.0:_ZNK3tvg14RadialGradient4typeEv
libthorvg.so.0:_ZNK3tvg14RadialGradient6radialEPfS1_S1_
libthorvg.so.0:_ZNK3tvg4Fill10colorStopsEPPKNS0_9ColorStopE
libthorvg.so.0:_ZNK3tvg4Fill10identifierEv
libthorvg.so.0:_ZNK3tvg4Fill6spreadEv
libthorvg.so.0:_ZNK3tvg4Fill9duplicateEv
libthorvg.so.0:_ZNK3tvg4Fill9transformEv
libthorvg.so.0:_ZNK3tvg4Text4typeEv
libthorvg.so.0:_ZNK3tvg5Paint10identifierEv
libthorvg.so.0:_ZNK3tvg5Paint4Impl6boundsEPNS_12RenderMethodE
libthorvg.so.0:_ZNK3tvg5Paint6boundsEPfS1_S1_S1_
libthorvg.so.0:_ZNK3tvg5Paint6boundsEPfS1_S1_S1_b
libthorvg.so.0:_ZNK3tvg5Paint7opacityEv
libthorvg.so.0:_ZNK3tvg5Paint9compositeEPPKS0_
libthorvg.so.0:_ZNK3tvg5Paint9duplicateEv
libthorvg.so.0:_ZNK3tvg5Scene4typeEv
libthorvg.so.0:_ZNK3tvg5Shape10pathCoordsEPPKNS_5PointE
libthorvg.so.0:_ZNK3tvg5Shape10strokeDashEPPKf
libthorvg.so.0:_ZNK3tvg5Shape10strokeFillEv
libthorvg.so.0:_ZNK3tvg5Shape10strokeJoinEv
libthorvg.so.0:_ZNK3tvg5Shape11strokeColorEPhS1_S1_S1_
libthorvg.so.0:_ZNK3tvg5Shape11strokeWidthEv
libthorvg.so.0:_ZNK3tvg5Shape12pathCommandsEPPKNS_11PathCommandE
libthorvg.so.0:_ZNK3tvg5Shape16strokeMiterlimitEv
libthorvg.so.0:_ZNK3tvg5Shape4fillEv
libthorvg.so.0:_ZNK3tvg5Shape4typeEv
libthorvg.so.0:_ZNK3tvg5Shape8fillRuleEv
libthorvg.so.0:_ZNK3tvg5Shape9fillColorEPhS1_S1_S1_
libthorvg.so.0:_ZNK3tvg5Shape9strokeCapEv
libthorvg.so.0:_ZNK3tvg7Picture4sizeEPfS1_
libthorvg.so.0:_ZNK3tvg7Picture4typeEv
libthorvg.so.0:_ZNK3tvg9Animation10totalFrameEv
libthorvg.so.0:_ZNK3tvg9Animation7pictureEv
libthorvg.so.0:_ZNK3tvg9Animation8curFrameEv
libthorvg.so.0:_ZNK3tvg9Animation8durationEv
libthorvg.so.0:tvg_accessor_generate_id
libthorvg.so.0:tvg_animation_del
libthorvg.so.0:tvg_animation_get_duration
libthorvg.so.0:tvg_animation_get_frame
libthorvg.so.0:tvg_animation_get_picture
libthorvg.so.0:tvg_animation_get_segment
libthorvg.so.0:tvg_animation_get_total_frame
libthorvg.so.0:tvg_animation_new
libthorvg.so.0:tvg_animation_set_frame
libthorvg.so.0:tvg_animation_set_segment
libthorvg.so.0:tvg_canvas_clear
libthorvg.so.0:tvg_canvas_destroy
libthorvg.so.0:tvg_canvas_draw
libthorvg.so.0:tvg_canvas_push
libthorvg.so.0:tvg_canvas_reserve
libthorvg.so.0:tvg_canvas_set_viewport
libthorvg.so.0:tvg_canvas_sync
libthorvg.so.0:tvg_canvas_update
libthorvg.so.0:tvg_canvas_update_paint
libthorvg.so.0:tvg_engine_init
libthorvg.so.0:tvg_engine_term
libthorvg.so.0:tvg_engine_version
libthorvg.so.0:tvg_font_load
libthorvg.so.0:tvg_font_load_data
libthorvg.so.0:tvg_font_unload
libthorvg.so.0:tvg_gradient_del
libthorvg.so.0:tvg_gradient_duplicate
libthorvg.so.0:tvg_gradient_get_color_stops
libthorvg.so.0:tvg_gradient_get_identifier
libthorvg.so.0:tvg_gradient_get_spread
libthorvg.so.0:tvg_gradient_get_transform
libthorvg.so.0:tvg_gradient_get_type
libthorvg.so.0:tvg_gradient_set_color_stops
libthorvg.so.0:tvg_gradient_set_spread
libthorvg.so.0:tvg_gradient_set_transform
libthorvg.so.0:tvg_linear_gradient_get
libthorvg.so.0:tvg_linear_gradient_new
libthorvg.so.0:tvg_linear_gradient_set
libthorvg.so.0:tvg_lottie_animation_get_marker
libthorvg.so.0:tvg_lottie_animation_get_markers_cnt
libthorvg.so.0:tvg_lottie_animation_new
libthorvg.so.0:tvg_lottie_animation_override
libthorvg.so.0:tvg_lottie_animation_set_marker
libthorvg.so.0:tvg_paint_del
libthorvg.so.0:tvg_paint_duplicate
libthorvg.so.0:tvg_paint_get_bounds
libthorvg.so.0:tvg_paint_get_composite_method
libthorvg.so.0:tvg_paint_get_identifier
libthorvg.so.0:tvg_paint_get_opacity
libthorvg.so.0:tvg_paint_get_transform
libthorvg.so.0:tvg_paint_get_type
libthorvg.so.0:tvg_paint_rotate
libthorvg.so.0:tvg_paint_scale
libthorvg.so.0:tvg_paint_set_blend_method
libthorvg.so.0:tvg_paint_set_clip
libthorvg.so.0:tvg_paint_set_composite_method
libthorvg.so.0:tvg_paint_set_opacity
libthorvg.so.0:tvg_paint_set_transform
libthorvg.so.0:tvg_paint_translate
libthorvg.so.0:tvg_picture_get_paint
libthorvg.so.0:tvg_picture_get_size
libthorvg.so.0:tvg_picture_load
libthorvg.so.0:tvg_picture_load_data
libthorvg.so.0:tvg_picture_load_raw
libthorvg.so.0:tvg_picture_new
libthorvg.so.0:tvg_picture_set_size
libthorvg.so.0:tvg_radial_gradient_get
libthorvg.so.0:tvg_radial_gradient_new
libthorvg.so.0:tvg_radial_gradient_set
libthorvg.so.0:tvg_saver_del
libthorvg.so.0:tvg_saver_new
libthorvg.so.0:tvg_saver_save
libthorvg.so.0:tvg_saver_sync
libthorvg.so.0:tvg_scene_clear
libthorvg.so.0:tvg_scene_new
libthorvg.so.0:tvg_scene_push
libthorvg.so.0:tvg_scene_reserve
libthorvg.so.0:tvg_shape_append_arc
libthorvg.so.0:tvg_shape_append_circle
libthorvg.so.0:tvg_shape_append_path
libthorvg.so.0:tvg_shape_append_rect
libthorvg.so.0:tvg_shape_close
libthorvg.so.0:tvg_shape_cubic_to
libthorvg.so.0:tvg_shape_get_fill_color
libthorvg.so.0:tvg_shape_get_fill_rule
libthorvg.so.0:tvg_shape_get_gradient
libthorvg.so.0:tvg_shape_get_path_commands
libthorvg.so.0:tvg_shape_get_path_coords
libthorvg.so.0:tvg_shape_get_stroke_cap
libthorvg.so.0:tvg_shape_get_stroke_color
libthorvg.so.0:tvg_shape_get_stroke_dash
libthorvg.so.0:tvg_shape_get_stroke_gradient
libthorvg.so.0:tvg_shape_get_stroke_join
libthorvg.so.0:tvg_shape_get_stroke_miterlimit
libthorvg.so.0:tvg_shape_get_stroke_width
libthorvg.so.0:tvg_shape_line_to
libthorvg.so.0:tvg_shape_move_to
libthorvg.so.0:tvg_shape_new
libthorvg.so.0:tvg_shape_reset
libthorvg.so.0:tvg_shape_set_fill_color
libthorvg.so.0:tvg_shape_set_fill_rule
libthorvg.so.0:tvg_shape_set_linear_gradient
libthorvg.so.0:tvg_shape_set_paint_order
libthorvg.so.0:tvg_shape_set_radial_gradient
libthorvg.so.0:tvg_shape_set_stroke_cap
libthorvg.so.0:tvg_shape_set_stroke_color
libthorvg.so.0:tvg_shape_set_stroke_dash
libthorvg.so.0:tvg_shape_set_stroke_join
libthorvg.so.0:tvg_shape_set_stroke_linear_gradient
libthorvg.so.0:tvg_shape_set_stroke_miterlimit
libthorvg.so.0:tvg_shape_set_stroke_radial_gradient
libthorvg.so.0:tvg_shape_set_stroke_trim
libthorvg.so.0:tvg_shape_set_stroke_width
libthorvg.so.0:tvg_swcanvas_create
libthorvg.so.0:tvg_swcanvas_set_mempool
libthorvg.so.0:tvg_swcanvas_set_target
libthorvg.so.0:tvg_text_new
libthorvg.so.0:tvg_text_set_fill_color
libthorvg.so.0:tvg_text_set_font
libthorvg.so.0:tvg_text_set_gradient
libthorvg.so.0:tvg_text_set_text
